target datalayout = "e-m:e-p270:32:32-p271:32:32-p272:64:64-i64:64-i128:128-f80:128-n8:16:32:64-S128"
target triple = "x86_64-pc-linux-gnu"

%struct.FunctionCallInfoBaseData = type { ptr, ptr, ptr, i32, i8, i16, [0 x %struct.NullableDatum] }
%struct.NullableDatum = type { i64, i8 }
%struct.pg_re_flags = type { i32, i8 }
%struct.regexp_matches_ctx = type { ptr, i32, i32, ptr, i32, ptr, ptr, ptr, ptr, i32 }
%struct.FmgrInfo = type { ptr, i32, i16, i8, i8, i8, ptr, ptr, ptr }
%struct.FuncCallContext = type { i64, i64, ptr, ptr, ptr, ptr }
%struct.ReturnSetInfo = type { i32, ptr, ptr, i32, i32, i32, ptr, ptr }

@CurrentMemoryContext = external global ptr, align 8
@.str.3 = private unnamed_addr constant [9 x i8] c"regexp.c\00", align 1
@.str.9 = private unnamed_addr constant [40 x i8] c"%s does not support the \22global\22 option\00", align 1
@.str.17 = private unnamed_addr constant [24 x i8] c"regexp_split_to_table()\00", align 1
@__func__.regexp_split_to_table = private unnamed_addr constant [22 x i8] c"regexp_split_to_table\00", align 1

; Function Attrs: inlinehint nounwind uwtable
define internal ptr @MemoryContextSwitchTo(ptr noundef %0) #6 {
  %2 = alloca ptr, align 8
  %3 = alloca ptr, align 8
  store ptr %0, ptr %2, align 8
  call void @llvm.lifetime.start.p0(i64 8, ptr %3) #8
  %4 = load ptr, ptr @CurrentMemoryContext, align 8
  store ptr %4, ptr %3, align 8
  %5 = load ptr, ptr %2, align 8
  store ptr %5, ptr @CurrentMemoryContext, align 8
  %6 = load ptr, ptr %3, align 8
  call void @llvm.lifetime.end.p0(i64 8, ptr %3) #8
  ret ptr %6
}

; Function Attrs: inlinehint nounwind uwtable
define internal ptr @DatumGetPointer(i64 noundef %0) #6 {
  %2 = alloca i64, align 8
  store i64 %0, ptr %2, align 8
  %3 = load i64, ptr %2, align 8
  %4 = inttoptr i64 %3 to ptr
  ret ptr %4
}

; Function Attrs: nounwind uwtable
define dso_local i64 @regexp_split_to_table(ptr noundef %0) #0 {
  %2 = alloca i64, align 8
  %3 = alloca ptr, align 8
  %4 = alloca ptr, align 8
  %5 = alloca ptr, align 8
  %6 = alloca ptr, align 8
  %7 = alloca ptr, align 8
  %8 = alloca %struct.pg_re_flags, align 4
  %9 = alloca ptr, align 8
  %10 = alloca i64, align 8
  %11 = alloca ptr, align 8
  %12 = alloca i32, align 4
  %13 = alloca ptr, align 8
  store ptr %0, ptr %3, align 8
  call void @llvm.lifetime.start.p0(i64 8, ptr %4) #8
  call void @llvm.lifetime.start.p0(i64 8, ptr %5) #8
  %14 = load ptr, ptr %3, align 8
  %15 = getelementptr inbounds nuw %struct.FunctionCallInfoBaseData, ptr %14, i32 0, i32 0
  %16 = load ptr, ptr %15, align 8
  %17 = getelementptr inbounds nuw %struct.FmgrInfo, ptr %16, i32 0, i32 6
  %18 = load ptr, ptr %17, align 8
  %19 = icmp eq ptr %18, null
  br i1 %19, label %20, label %85

20:                                               ; preds = %1
  call void @llvm.lifetime.start.p0(i64 8, ptr %6) #8
  %21 = load ptr, ptr %3, align 8
  %22 = getelementptr inbounds nuw %struct.FunctionCallInfoBaseData, ptr %21, i32 0, i32 6
  %23 = getelementptr inbounds [0 x %struct.NullableDatum], ptr %22, i64 0, i64 1
  %24 = getelementptr inbounds nuw %struct.NullableDatum, ptr %23, i32 0, i32 0
  %25 = load i64, ptr %24, align 8
  %26 = call ptr @DatumGetPointer(i64 noundef %25)
  %27 = call ptr @pg_detoast_datum_packed(ptr noundef %26)
  store ptr %27, ptr %6, align 8
  call void @llvm.lifetime.start.p0(i64 8, ptr %7) #8
  %28 = load ptr, ptr %3, align 8
  %29 = getelementptr inbounds nuw %struct.FunctionCallInfoBaseData, ptr %28, i32 0, i32 5
  %30 = load i16, ptr %29, align 2
  %31 = sext i16 %30 to i32
  %32 = icmp sgt i32 %31, 2
  br i1 %32, label %33, label %41

33:                                               ; preds = %20
  %34 = load ptr, ptr %3, align 8
  %35 = getelementptr inbounds nuw %struct.FunctionCallInfoBaseData, ptr %34, i32 0, i32 6
  %36 = getelementptr inbounds [0 x %struct.NullableDatum], ptr %35, i64 0, i64 2
  %37 = getelementptr inbounds nuw %struct.NullableDatum, ptr %36, i32 0, i32 0
  %38 = load i64, ptr %37, align 8
  %39 = call ptr @DatumGetPointer(i64 noundef %38)
  %40 = call ptr @pg_detoast_datum_packed(ptr noundef %39)
  br label %42

41:                                               ; preds = %20
  br label %42

42:                                               ; preds = %41, %33
  %43 = phi ptr [ %40, %33 ], [ null, %41 ]
  store ptr %43, ptr %7, align 8
  call void @llvm.lifetime.start.p0(i64 8, ptr %8) #8
  call void @llvm.lifetime.start.p0(i64 8, ptr %9) #8
  %44 = load ptr, ptr %3, align 8
  %45 = call ptr @init_MultiFuncCall(ptr noundef %44)
  store ptr %45, ptr %4, align 8
  %46 = load ptr, ptr %4, align 8
  %47 = getelementptr inbounds nuw %struct.FuncCallContext, ptr %46, i32 0, i32 4
  %48 = load ptr, ptr %47, align 8
  %49 = call ptr @MemoryContextSwitchTo(ptr noundef %48)
  store ptr %49, ptr %9, align 8
  %50 = load ptr, ptr %7, align 8
  call void @parse_re_flags(ptr noundef %8, ptr noundef %50)
  %51 = getelementptr inbounds nuw %struct.pg_re_flags, ptr %8, i32 0, i32 1
  %52 = load i8, ptr %51, align 4, !range !6, !noundef !7
  %53 = trunc i8 %52 to i1
  br i1 %53, label %54, label %66

54:                                               ; preds = %42
  br label %55

55:                                               ; preds = %54
  br i1 true, label %56, label %58

56:                                               ; preds = %55
  %57 = call zeroext i1 @errstart_cold(i32 noundef 21, ptr noundef null) #10
  br i1 %57, label %60, label %63

58:                                               ; preds = %55
  %59 = call zeroext i1 @errstart(i32 noundef 21, ptr noundef null)
  br i1 %59, label %60, label %63

60:                                               ; preds = %58, %56
  %61 = call i32 @errcode(i32 noundef 50856066)
  %62 = call i32 (ptr, ...) @errmsg(ptr noundef @.str.9, ptr noundef @.str.17)
  call void @errfinish(ptr noundef @.str.3, i32 noundef 1699, ptr noundef @__func__.regexp_split_to_table)
  br label %63

63:                                               ; preds = %60, %58, %56
  unreachable

64:                                               ; No predecessors!
  br label %65

65:                                               ; preds = %64
  br label %66

66:                                               ; preds = %65, %42
  %67 = getelementptr inbounds nuw %struct.pg_re_flags, ptr %8, i32 0, i32 1
  store i8 1, ptr %67, align 4
  %68 = load ptr, ptr %3, align 8
  %69 = getelementptr inbounds nuw %struct.FunctionCallInfoBaseData, ptr %68, i32 0, i32 6
  %70 = getelementptr inbounds [0 x %struct.NullableDatum], ptr %69, i64 0, i64 0
  %71 = getelementptr inbounds nuw %struct.NullableDatum, ptr %70, i32 0, i32 0
  %72 = load i64, ptr %71, align 8
  %73 = call ptr @DatumGetPointer(i64 noundef %72)
  %74 = call ptr @pg_detoast_datum_copy(ptr noundef %73)
  %75 = load ptr, ptr %6, align 8
  %76 = load ptr, ptr %3, align 8
  %77 = getelementptr inbounds nuw %struct.FunctionCallInfoBaseData, ptr %76, i32 0, i32 3
  %78 = load i32, ptr %77, align 8
  %79 = call ptr @setup_regexp_matches(ptr noundef %74, ptr noundef %75, ptr noundef %8, i32 noundef 0, i32 noundef %78, i1 noundef zeroext false, i1 noundef zeroext true, i1 noundef zeroext true)
  store ptr %79, ptr %5, align 8
  %80 = load ptr, ptr %9, align 8
  %81 = call ptr @MemoryContextSwitchTo(ptr noundef %80)
  %82 = load ptr, ptr %5, align 8
  %83 = load ptr, ptr %4, align 8
  %84 = getelementptr inbounds nuw %struct.FuncCallContext, ptr %83, i32 0, i32 2
  store ptr %82, ptr %84, align 8
  call void @llvm.lifetime.end.p0(i64 8, ptr %9) #8
  call void @llvm.lifetime.end.p0(i64 8, ptr %8) #8
  call void @llvm.lifetime.end.p0(i64 8, ptr %7) #8
  call void @llvm.lifetime.end.p0(i64 8, ptr %6) #8
  br label %85

85:                                               ; preds = %66, %1
  %86 = load ptr, ptr %3, align 8
  %87 = call ptr @per_MultiFuncCall(ptr noundef %86)
  store ptr %87, ptr %4, align 8
  %88 = load ptr, ptr %4, align 8
  %89 = getelementptr inbounds nuw %struct.FuncCallContext, ptr %88, i32 0, i32 2
  %90 = load ptr, ptr %89, align 8
  store ptr %90, ptr %5, align 8
  %91 = load ptr, ptr %5, align 8
  %92 = getelementptr inbounds nuw %struct.regexp_matches_ctx, ptr %91, i32 0, i32 4
  %93 = load i32, ptr %92, align 8
  %94 = load ptr, ptr %5, align 8
  %95 = getelementptr inbounds nuw %struct.regexp_matches_ctx, ptr %94, i32 0, i32 1
  %96 = load i32, ptr %95, align 8
  %97 = icmp sle i32 %93, %96
  br i1 %97, label %98, label %121

98:                                               ; preds = %85
  call void @llvm.lifetime.start.p0(i64 8, ptr %10) #8
  %99 = load ptr, ptr %5, align 8
  %100 = call i64 @build_regexp_split_result(ptr noundef %99)
  store i64 %100, ptr %10, align 8
  %101 = load ptr, ptr %5, align 8
  %102 = getelementptr inbounds nuw %struct.regexp_matches_ctx, ptr %101, i32 0, i32 4
  %103 = load i32, ptr %102, align 8
  %104 = add i32 %103, 1
  store i32 %104, ptr %102, align 8
  br label %105

105:                                              ; preds = %98
  call void @llvm.lifetime.start.p0(i64 8, ptr %11) #8
  %106 = load ptr, ptr %4, align 8
  %107 = getelementptr inbounds nuw %struct.FuncCallContext, ptr %106, i32 0, i32 0
  %108 = load i64, ptr %107, align 8
  %109 = add i64 %108, 1
  store i64 %109, ptr %107, align 8
  %110 = load ptr, ptr %3, align 8
  %111 = getelementptr inbounds nuw %struct.FunctionCallInfoBaseData, ptr %110, i32 0, i32 2
  %112 = load ptr, ptr %111, align 8
  store ptr %112, ptr %11, align 8
  %113 = load ptr, ptr %11, align 8
  %114 = getelementptr inbounds nuw %struct.ReturnSetInfo, ptr %113, i32 0, i32 5
  store i32 1, ptr %114, align 8
  %115 = load i64, ptr %10, align 8
  store i64 %115, ptr %2, align 8
  store i32 1, ptr %12, align 4
  call void @llvm.lifetime.end.p0(i64 8, ptr %11) #8
  br label %118

116:                                              ; No predecessors!
  br label %117

117:                                              ; preds = %116
  store i32 0, ptr %12, align 4
  br label %118

118:                                              ; preds = %117, %105
  call void @llvm.lifetime.end.p0(i64 8, ptr %10) #8
  %119 = load i32, ptr %12, align 4
  switch i32 %119, label %140 [
    i32 0, label %120
  ]

120:                                              ; preds = %118
  br label %121

121:                                              ; preds = %120, %85
  br label %122

122:                                              ; preds = %121
  call void @llvm.lifetime.start.p0(i64 8, ptr %13) #8
  %123 = load ptr, ptr %3, align 8
  %124 = load ptr, ptr %4, align 8
  call void @end_MultiFuncCall(ptr noundef %123, ptr noundef %124)
  %125 = load ptr, ptr %3, align 8
  %126 = getelementptr inbounds nuw %struct.FunctionCallInfoBaseData, ptr %125, i32 0, i32 2
  %127 = load ptr, ptr %126, align 8
  store ptr %127, ptr %13, align 8
  %128 = load ptr, ptr %13, align 8
  %129 = getelementptr inbounds nuw %struct.ReturnSetInfo, ptr %128, i32 0, i32 5
  store i32 2, ptr %129, align 8
  br label %130

130:                                              ; preds = %122
  %131 = load ptr, ptr %3, align 8
  %132 = getelementptr inbounds nuw %struct.FunctionCallInfoBaseData, ptr %131, i32 0, i32 4
  store i8 1, ptr %132, align 4
  store i64 0, ptr %2, align 8
  store i32 1, ptr %12, align 4
  br label %135

133:                                              ; No predecessors!
  br label %134

134:                                              ; preds = %133
  store i32 0, ptr %12, align 4
  br label %135

135:                                              ; preds = %134, %130
  call void @llvm.lifetime.end.p0(i64 8, ptr %13) #8
  %136 = load i32, ptr %12, align 4
  switch i32 %136, label %140 [
    i32 0, label %137
  ]

137:                                              ; preds = %135
  br label %138

138:                                              ; preds = %137
  br label %139

139:                                              ; preds = %138
  store i32 0, ptr %12, align 4
  br label %140

140:                                              ; preds = %139, %135, %118
  call void @llvm.lifetime.end.p0(i64 8, ptr %5) #8
  call void @llvm.lifetime.end.p0(i64 8, ptr %4) #8
  %141 = load i32, ptr %12, align 4
  switch i32 %141, label %144 [
    i32 0, label %142
    i32 1, label %142
  ]

142:                                              ; preds = %140, %140
  %143 = load i64, ptr %2, align 8
  ret i64 %143

144:                                              ; preds = %140
  unreachable
}