; Function Attrs: nounwind uwtable
define dso_local i64 @regexp_split_to_table(ptr noundef %0) local_unnamed_addr #0 {
  %2 = alloca %struct.pg_re_flags, align 4
  %3 = load ptr, ptr %0, align 8
  %4 = getelementptr inbounds nuw i8, ptr %3, i64 24
  %5 = load ptr, ptr %4, align 8
  %6 = icmp eq ptr %5, null
  br i1 %6, label %7, label %42

7:                                                ; preds = %1
  %8 = getelementptr inbounds nuw i8, ptr %0, i64 32
  %9 = getelementptr inbounds nuw i8, ptr %0, i64 48
  %10 = load i64, ptr %9, align 8
  %11 = inttoptr i64 %10 to ptr
  %12 = tail call ptr @pg_detoast_datum_packed(ptr noundef %11) #9
  %13 = getelementptr inbounds nuw i8, ptr %0, i64 30
  %14 = load i16, ptr %13, align 2
  %15 = icmp sgt i16 %14, 2
  br i1 %15, label %16, label %21

16:                                               ; preds = %7
  %17 = getelementptr inbounds nuw i8, ptr %0, i64 64
  %18 = load i64, ptr %17, align 8
  %19 = inttoptr i64 %18 to ptr
  %20 = tail call ptr @pg_detoast_datum_packed(ptr noundef %19) #9
  br label %21

21:                                               ; preds = %7, %16
  %22 = phi ptr [ %20, %16 ], [ null, %7 ]
  call void @llvm.lifetime.start.p0(i64 8, ptr nonnull %2) #9
  %23 = tail call ptr @init_MultiFuncCall(ptr noundef nonnull %0) #9
  %24 = getelementptr inbounds nuw i8, ptr %23, i64 32
  %25 = load ptr, ptr %24, align 8
  %26 = load ptr, ptr @CurrentMemoryContext, align 8
  store ptr %25, ptr @CurrentMemoryContext, align 8
  call fastcc void @parse_re_flags(ptr noundef %2, ptr noundef %22)
  %27 = getelementptr inbounds nuw i8, ptr %2, i64 4
  %28 = load i8, ptr %27, align 4, !range !7, !noundef !8
  %29 = trunc nuw i8 %28 to i1
  br i1 %29, label %30, label %34

30:                                               ; preds = %21
  %31 = tail call zeroext i1 @errstart_cold(i32 noundef 21, ptr noundef null) #10
  tail call void @llvm.assume(i1 %31)
  %32 = tail call i32 @errcode(i32 noundef 50856066) #9
  %33 = tail call i32 (ptr, ...) @errmsg(ptr noundef nonnull @.str.9, ptr noundef nonnull @.str.17) #9
  tail call void @errfinish(ptr noundef nonnull @.str.3, i32 noundef 1699, ptr noundef nonnull @__func__.regexp_split_to_table) #9
  unreachable

34:                                               ; preds = %21
  %35 = load i64, ptr %8, align 8
  %36 = inttoptr i64 %35 to ptr
  %37 = tail call ptr @pg_detoast_datum_copy(ptr noundef %36) #9
  %38 = getelementptr inbounds nuw i8, ptr %0, i64 24
  %39 = load i32, ptr %38, align 8
  %.val = load i32, ptr %2, align 4
  %40 = tail call fastcc ptr @setup_regexp_matches(ptr noundef %37, ptr noundef %12, i32 %.val, i8 1, i32 noundef 0, i32 noundef %39, i1 noundef zeroext false, i1 noundef zeroext true, i1 noundef zeroext true)
  store ptr %26, ptr @CurrentMemoryContext, align 8
  %41 = getelementptr inbounds nuw i8, ptr %23, i64 16
  store ptr %40, ptr %41, align 8
  call void @llvm.lifetime.end.p0(i64 8, ptr nonnull %2) #9
  br label %42

42:                                               ; preds = %34, %1
  %43 = tail call ptr @per_MultiFuncCall(ptr noundef nonnull %0) #9
  %44 = getelementptr inbounds nuw i8, ptr %43, i64 16
  %45 = load ptr, ptr %44, align 8
  %46 = getelementptr inbounds nuw i8, ptr %45, i64 24
  %47 = load i32, ptr %46, align 8
  %48 = getelementptr inbounds nuw i8, ptr %45, i64 8
  %49 = load i32, ptr %48, align 8
  %.not = icmp sgt i32 %47, %49
  br i1 %.not, label %59, label %50

50:                                               ; preds = %42
  %51 = tail call fastcc i64 @build_regexp_split_result(ptr noundef nonnull %45)
  %52 = load i32, ptr %46, align 8
  %53 = add i32 %52, 1
  store i32 %53, ptr %46, align 8
  %54 = load i64, ptr %43, align 8
  %55 = add i64 %54, 1
  store i64 %55, ptr %43, align 8
  %56 = getelementptr inbounds nuw i8, ptr %0, i64 16
  %57 = load ptr, ptr %56, align 8
  %58 = getelementptr inbounds nuw i8, ptr %57, i64 32
  store i32 1, ptr %58, align 8
  br label %64

59:                                               ; preds = %42
  tail call void @end_MultiFuncCall(ptr noundef nonnull %0, ptr noundef nonnull %43) #9
  %60 = getelementptr inbounds nuw i8, ptr %0, i64 16
  %61 = load ptr, ptr %60, align 8
  %62 = getelementptr inbounds nuw i8, ptr %61, i64 32
  store i32 2, ptr %62, align 8
  %63 = getelementptr inbounds nuw i8, ptr %0, i64 28
  store i8 1, ptr %63, align 4
  br label %64

64:                                               ; preds = %50, %59
  %.0 = phi i64 [ 0, %59 ], [ %51, %50 ]
  ret i64 %.0
}